; Function Attrs: mustprogress nounwind uwtable
define internal noundef nonnull align 8 dereferenceable(24) ptr @_ZNK12_GLOBAL__N_117AArch64AsmBackend16getFixupKindInfoEN4llvm11MCFixupKindE(ptr noundef nonnull align 8 dereferenceable(72) %0, i32 noundef %1) unnamed_addr #0 align 2 {
  %3 = icmp sgt i32 %1, 255
  br i1 %3, label %4, label %6

4:                                                ; preds = %2
  %5 = tail call noundef nonnull align 8 dereferenceable(24) ptr @_ZNK4llvm12MCAsmBackend16getFixupKindInfoENS_11MCFixupKindE(ptr noundef nonnull align 8 dereferenceable(16) %0, i32 noundef 0) #17
  br label %14

6:                                                ; preds = %2
  %7 = icmp slt i32 %1, 128
  br i1 %7, label %8, label %10

8:                                                ; preds = %6
  %9 = tail call noundef nonnull align 8 dereferenceable(24) ptr @_ZNK4llvm12MCAsmBackend16getFixupKindInfoENS_11MCFixupKindE(ptr noundef nonnull align 8 dereferenceable(16) %0, i32 noundef %1) #17
  br label %14

10:                                               ; preds = %6
  %11 = add nsw i32 %1, -128
  %12 = zext nneg i32 %11 to i64
  %13 = getelementptr inbounds [15 x %"struct.llvm::MCFixupKindInfo"], ptr @_ZZNK12_GLOBAL__N_117AArch64AsmBackend16getFixupKindInfoEN4llvm11MCFixupKindEE5Infos, i64 0, i64 %12
  br label %14

14:                                               ; preds = %10, %8, %4
  %.0 = phi ptr [ %5, %4 ], [ %9, %8 ], [ %13, %10 ]
  ret ptr %.0
}